; Function Attrs: nounwind uwtable
define ptr @initialize_Lean_Compiler_LCNF_AlphaEqv(i8 noundef zeroext %0, ptr noundef readnone captures(none) %1) local_unnamed_addr #0 {
  %.b4 = load i1, ptr @_G_initialized, align 1
  br i1 %.b4, label %3, label %7

3:                                                ; preds = %2
  tail call void @lean_inc_heartbeat() #4
  %4 = tail call noalias ptr @mi_malloc_small(i64 noundef 24) #4
  %5 = icmp eq ptr %4, null
  br i1 %5, label %6, label %.sink.split

6:                                                ; preds = %3
  tail call void @lean_internal_panic_out_of_memory() #5
  unreachable

7:                                                ; preds = %2
  store i1 true, ptr @_G_initialized, align 1
  %8 = tail call ptr @initialize_Lean_Compiler_LCNF_Basic(i8 noundef zeroext %0, ptr noundef nonnull inttoptr (i64 1 to ptr)) #4
  %9 = getelementptr i8, ptr %8, i64 4
  %.val = load i32, ptr %9, align 4
  %.mask.i = and i32 %.val, -16777216
  %10 = icmp eq i32 %.mask.i, 16777216
  br i1 %10, label %43, label %11

11:                                               ; preds = %7
  %12 = load i32, ptr %8, align 4, !tbaa !8
  %13 = icmp sgt i32 %12, 1
  br i1 %13, label %14, label %16, !prof !11

14:                                               ; preds = %11
  %15 = add nsw i32 %12, -1
  store i32 %15, ptr %8, align 4, !tbaa !8
  br label %lean_dec_ref.exit

16:                                               ; preds = %11
  %.not.i = icmp eq i32 %12, 0
  br i1 %.not.i, label %lean_dec_ref.exit, label %17

17:                                               ; preds = %16
  tail call void @lean_dec_ref_cold(ptr noundef nonnull %8) #4
  br label %lean_dec_ref.exit

lean_dec_ref.exit:                                ; preds = %14, %16, %17
  tail call void @lean_inc_heartbeat() #4
  %18 = tail call noalias ptr @mi_malloc_small(i64 noundef 16) #4
  %19 = icmp eq ptr %18, null
  br i1 %19, label %20, label %_init_l_Array_forIn_x27Unsafe_loop___at_Lean_Compiler_LCNF_AlphaEqv_eqvTypes___spec__1___closed__1.exit

20:                                               ; preds = %lean_dec_ref.exit
  tail call void @lean_internal_panic_out_of_memory() #5
  unreachable

_init_l_Array_forIn_x27Unsafe_loop___at_Lean_Compiler_LCNF_AlphaEqv_eqvTypes___spec__1___closed__1.exit: ; preds = %lean_dec_ref.exit
  %21 = getelementptr inbounds nuw i8, ptr %18, i64 4
  store i32 1, ptr %18, align 4, !tbaa !8
  store i32 16842768, ptr %21, align 4
  %22 = getelementptr inbounds nuw i8, ptr %18, i64 8
  store ptr inttoptr (i64 1 to ptr), ptr %22, align 8, !tbaa !4
  store ptr %18, ptr @l_Array_forIn_x27Unsafe_loop___at_Lean_Compiler_LCNF_AlphaEqv_eqvTypes___spec__1___closed__1, align 8, !tbaa !4
  tail call void @lean_mark_persistent(ptr noundef nonnull %18) #4
  tail call void @lean_inc_heartbeat() #4
  %23 = tail call noalias ptr @mi_malloc_small(i64 noundef 24) #4
  %24 = icmp eq ptr %23, null
  br i1 %24, label %25, label %_init_l_Lean_Compiler_LCNF_AlphaEqv_eqvTypes___closed__1.exit

25:                                               ; preds = %_init_l_Array_forIn_x27Unsafe_loop___at_Lean_Compiler_LCNF_AlphaEqv_eqvTypes___spec__1___closed__1.exit
  tail call void @lean_internal_panic_out_of_memory() #5
  unreachable

_init_l_Lean_Compiler_LCNF_AlphaEqv_eqvTypes___closed__1.exit: ; preds = %_init_l_Array_forIn_x27Unsafe_loop___at_Lean_Compiler_LCNF_AlphaEqv_eqvTypes___spec__1___closed__1.exit
  %26 = getelementptr inbounds nuw i8, ptr %23, i64 4
  store i32 1, ptr %23, align 4, !tbaa !8
  store i32 -184549352, ptr %26, align 4
  %27 = getelementptr inbounds nuw i8, ptr %23, i64 8
  store ptr @l_Lean_Compiler_LCNF_AlphaEqv_eqvTypes___lambda__1___boxed, ptr %27, align 8, !tbaa !4
  %28 = getelementptr inbounds nuw i8, ptr %23, i64 16
  store i16 2, ptr %28, align 8, !tbaa !15
  %29 = getelementptr inbounds nuw i8, ptr %23, i64 18
  store i16 0, ptr %29, align 2, !tbaa !15
  store ptr %23, ptr @l_Lean_Compiler_LCNF_AlphaEqv_eqvTypes___closed__1, align 8, !tbaa !4
  tail call void @lean_mark_persistent(ptr noundef nonnull %23) #4
  tail call void @lean_inc_heartbeat() #4
  %30 = tail call noalias ptr @mi_malloc_small(i64 noundef 24) #4
  %31 = icmp eq ptr %30, null
  br i1 %31, label %32, label %_init_l_Array_qsort_sort___at_Lean_Compiler_LCNF_AlphaEqv_sortAlts___spec__1___closed__1.exit

32:                                               ; preds = %_init_l_Lean_Compiler_LCNF_AlphaEqv_eqvTypes___closed__1.exit
  tail call void @lean_internal_panic_out_of_memory() #5
  unreachable

_init_l_Array_qsort_sort___at_Lean_Compiler_LCNF_AlphaEqv_sortAlts___spec__1___closed__1.exit: ; preds = %_init_l_Lean_Compiler_LCNF_AlphaEqv_eqvTypes___closed__1.exit
  %33 = getelementptr inbounds nuw i8, ptr %30, i64 4
  store i32 1, ptr %30, align 4, !tbaa !8
  store i32 -184549352, ptr %33, align 4
  %34 = getelementptr inbounds nuw i8, ptr %30, i64 8
  store ptr @l_Array_qsort_sort___at_Lean_Compiler_LCNF_AlphaEqv_sortAlts___spec__1___lambda__1___boxed, ptr %34, align 8, !tbaa !4
  %35 = getelementptr inbounds nuw i8, ptr %30, i64 16
  store i16 2, ptr %35, align 8, !tbaa !15
  %36 = getelementptr inbounds nuw i8, ptr %30, i64 18
  store i16 0, ptr %36, align 2, !tbaa !15
  store ptr %30, ptr @l_Array_qsort_sort___at_Lean_Compiler_LCNF_AlphaEqv_sortAlts___spec__1___closed__1, align 8, !tbaa !4
  tail call void @lean_mark_persistent(ptr noundef nonnull %30) #4
  tail call void @lean_inc_heartbeat() #4
  %37 = tail call noalias ptr @mi_malloc_small(i64 noundef 24) #4
  %38 = icmp eq ptr %37, null
  br i1 %38, label %39, label %.sink.split

39:                                               ; preds = %_init_l_Array_qsort_sort___at_Lean_Compiler_LCNF_AlphaEqv_sortAlts___spec__1___closed__1.exit
  tail call void @lean_internal_panic_out_of_memory() #5
  unreachable

.sink.split:                                      ; preds = %_init_l_Array_qsort_sort___at_Lean_Compiler_LCNF_AlphaEqv_sortAlts___spec__1___closed__1.exit, %3
  %.sink9 = phi ptr [ %4, %3 ], [ %37, %_init_l_Array_qsort_sort___at_Lean_Compiler_LCNF_AlphaEqv_sortAlts___spec__1___closed__1.exit ]
  %40 = getelementptr inbounds nuw i8, ptr %.sink9, i64 4
  store i32 1, ptr %.sink9, align 4, !tbaa !8
  store i32 131096, ptr %40, align 4
  %41 = getelementptr inbounds nuw i8, ptr %.sink9, i64 8
  store ptr inttoptr (i64 1 to ptr), ptr %41, align 8, !tbaa !4
  %42 = getelementptr inbounds nuw i8, ptr %.sink9, i64 16
  store ptr inttoptr (i64 1 to ptr), ptr %42, align 8, !tbaa !4
  br label %43

43:                                               ; preds = %.sink.split, %7
  %.0 = phi ptr [ %8, %7 ], [ %.sink9, %.sink.split ]
  ret ptr %.0
}